target datalayout = "e-m:e-p270:32:32-p271:32:32-p272:64:64-i64:64-i128:128-f80:128-n8:16:32:64-S128"
target triple = "x86_64-pc-linux-gnu"

@.str = private unnamed_addr constant [1 x i8] zeroinitializer, align 1
@ON_LINE = internal global i8 0, align 1
@stdout = external global ptr, align 8
@.str.17 = private unnamed_addr constant [5 x i8] c"%-*s\00", align 1
@INDENT_LEVEL = internal global i32 0, align 4
@HANGING_OUTPUT = internal global i8 0, align 1
@GLOBAL_PRINT_COUNT = internal global i32 0, align 4
@.str.75 = private unnamed_addr constant [2 x i8] c"\22\00", align 1
@.str.76 = private unnamed_addr constant [4 x i8] c" {\0A\00", align 1

; Function Attrs: nounwind uwtable
define internal void @go_offline_with_marker(ptr noundef %0) #0 {
  %2 = alloca ptr, align 8
  %3 = alloca i8, align 1
  store ptr %0, ptr %2, align 8, !tbaa !15
  call void @llvm.lifetime.start.p0(i64 1, ptr %3) #12
  %4 = load i8, ptr @ON_LINE, align 1, !tbaa !20
  store i8 %4, ptr %3, align 1, !tbaa !20
  %5 = load i8, ptr @ON_LINE, align 1, !tbaa !20
  %6 = icmp ne i8 %5, 0
  br i1 %6, label %7, label %8

7:                                                ; preds = %1
  call void (ptr, ...) @log_testinfo(ptr noundef @.str.76)
  store i8 0, ptr @ON_LINE, align 1, !tbaa !20
  br label %8

8:                                                ; preds = %7, %1
  %9 = load i8, ptr @HANGING_OUTPUT, align 1, !tbaa !20
  %10 = icmp ne i8 %9, 0
  br i1 %10, label %11, label %15

11:                                               ; preds = %8
  %12 = load i8, ptr %3, align 1, !tbaa !20
  %13 = sext i8 %12 to i32
  %14 = icmp ne i32 %13, 0
  br i1 %14, label %15, label %23

15:                                               ; preds = %11, %8
  %16 = load ptr, ptr %2, align 8, !tbaa !15
  %17 = icmp ne ptr %16, null
  br i1 %17, label %18, label %22

18:                                               ; preds = %15
  %19 = load ptr, ptr %2, align 8, !tbaa !15
  %20 = load ptr, ptr @stdout, align 8, !tbaa !27
  %21 = call i32 @fputs(ptr noundef %19, ptr noundef %20)
  br label %22

22:                                               ; preds = %18, %15
  br label %23

23:                                               ; preds = %22, %11
  call void @llvm.lifetime.end.p0(i64 1, ptr %3) #12
  ret void
}

; Function Attrs: nounwind uwtable
define internal void @first_line_info() #0 {
  call void @go_offline_with_marker(ptr noundef @.str.75)
  ret void
}

; Function Attrs: nounwind uwtable
define void @vlog_info(ptr noundef %0, ptr noundef %1, ptr noundef %2) #0 {
  %4 = alloca ptr, align 8
  %5 = alloca ptr, align 8
  %6 = alloca ptr, align 8
  store ptr %0, ptr %4, align 8, !tbaa !15
  store ptr %1, ptr %5, align 8, !tbaa !15
  store ptr %2, ptr %6, align 8, !tbaa !36
  call void @first_line_info()
  %7 = load ptr, ptr @stdout, align 8, !tbaa !27
  %8 = load i32, ptr @INDENT_LEVEL, align 4, !tbaa !18
  %9 = call i32 (ptr, ptr, ...) @fprintf(ptr noundef %7, ptr noundef @.str.17, i32 noundef %8, ptr noundef @.str) #12
  %10 = load ptr, ptr %4, align 8, !tbaa !15
  %11 = icmp ne ptr %10, null
  br i1 %11, label %12, label %16

12:                                               ; preds = %3
  %13 = load ptr, ptr %4, align 8, !tbaa !15
  %14 = load ptr, ptr @stdout, align 8, !tbaa !27
  %15 = call i32 @fputs(ptr noundef %13, ptr noundef %14)
  br label %16

16:                                               ; preds = %12, %3
  %17 = load ptr, ptr @stdout, align 8, !tbaa !27
  %18 = load ptr, ptr %5, align 8, !tbaa !15
  %19 = load ptr, ptr %6, align 8, !tbaa !36
  %20 = call i32 @vfprintf(ptr noundef %17, ptr noundef %18, ptr noundef %19) #12
  %21 = load ptr, ptr @stdout, align 8, !tbaa !27
  %22 = call i32 @fflush(ptr noundef %21)
  %23 = load ptr, ptr %5, align 8, !tbaa !15
  %24 = load i8, ptr %23, align 1, !tbaa !20
  %25 = sext i8 %24 to i32
  %26 = icmp eq i32 %25, 0
  br i1 %26, label %36, label %27

27:                                               ; preds = %16
  %28 = load ptr, ptr %5, align 8, !tbaa !15
  %29 = load ptr, ptr %5, align 8, !tbaa !15
  %30 = call i64 @strlen(ptr noundef %29) #14
  %31 = sub i64 %30, 1
  %32 = getelementptr inbounds nuw i8, ptr %28, i64 %31
  %33 = load i8, ptr %32, align 1, !tbaa !20
  %34 = sext i8 %33 to i32
  %35 = icmp ne i32 %34, 10
  br i1 %35, label %36, label %37

36:                                               ; preds = %27, %16
  store i8 1, ptr @HANGING_OUTPUT, align 1, !tbaa !20
  br label %38

37:                                               ; preds = %27
  store i8 0, ptr @HANGING_OUTPUT, align 1, !tbaa !20
  br label %38

38:                                               ; preds = %37, %36
  %39 = load i32, ptr @GLOBAL_PRINT_COUNT, align 4, !tbaa !18
  %40 = add nsw i32 %39, 1
  store i32 %40, ptr @GLOBAL_PRINT_COUNT, align 4, !tbaa !18
  ret void
}