; Function Attrs: nofree nounwind uwtable
define void @vlog_info(ptr noundef readonly %0, ptr noundef readonly captures(none) %1, ptr noundef %2) local_unnamed_addr #2 {
  %.b.i.i = load i1, ptr @ON_LINE, align 1
  br i1 %.b.i.i, label %.thread.i, label %4

.thread.i:                                        ; preds = %3
  tail call void (ptr, ...) @log_testinfo(ptr noundef nonnull @.str.76)
  store i1 false, ptr @ON_LINE, align 1
  br label %5

4:                                                ; preds = %3
  %.b6.i.i = load i1, ptr @HANGING_OUTPUT, align 1
  br i1 %.b6.i.i, label %first_line_info.exit, label %5

5:                                                ; preds = %4, %.thread.i
  %6 = load ptr, ptr @stdout, align 8, !tbaa !16
  %fputc.i = tail call i32 @fputc(i32 34, ptr %6)
  br label %first_line_info.exit

first_line_info.exit:                             ; preds = %4, %5
  %7 = load ptr, ptr @stdout, align 8, !tbaa !16
  %8 = load i32, ptr @INDENT_LEVEL, align 4, !tbaa !18
  %9 = tail call i32 (ptr, ptr, ...) @fprintf(ptr noundef %7, ptr noundef nonnull @.str.17, i32 noundef %8, ptr noundef nonnull @.str) #23
  %.not = icmp eq ptr %0, null
  br i1 %.not, label %13, label %10

10:                                               ; preds = %first_line_info.exit
  %11 = load ptr, ptr @stdout, align 8, !tbaa !16
  %12 = tail call i32 @fputs(ptr noundef nonnull %0, ptr noundef %11)
  br label %13

13:                                               ; preds = %10, %first_line_info.exit
  %14 = load ptr, ptr @stdout, align 8, !tbaa !16
  %15 = tail call i32 @vfprintf(ptr noundef %14, ptr noundef %1, ptr noundef %2) #23
  %16 = load ptr, ptr @stdout, align 8, !tbaa !16
  %17 = tail call i32 @fflush(ptr noundef %16)
  %18 = load i8, ptr %1, align 1, !tbaa !11
  %19 = icmp eq i8 %18, 0
  br i1 %19, label %25, label %20

20:                                               ; preds = %13
  %21 = tail call i64 @strlen(ptr noundef nonnull dereferenceable(1) %1) #25
  %22 = getelementptr i8, ptr %1, i64 %21
  %23 = getelementptr i8, ptr %22, i64 -1
  %24 = load i8, ptr %23, align 1, !tbaa !11
  %.not7 = icmp ne i8 %24, 10
  br label %25

25:                                               ; preds = %20, %13
  %storemerge = phi i1 [ true, %13 ], [ %.not7, %20 ]
  store i1 %storemerge, ptr @HANGING_OUTPUT, align 1
  %26 = load i32, ptr @GLOBAL_PRINT_COUNT, align 4, !tbaa !18
  %27 = add nsw i32 %26, 1
  store i32 %27, ptr @GLOBAL_PRINT_COUNT, align 4, !tbaa !18
  ret void
}